ARM GAS  C:\Users\bhimebau\AppData\Local\Temp\ccRaUkM6.s 			page 1


   1              		.cpu cortex-m4
   2              		.eabi_attribute 27, 1
   3              		.eabi_attribute 28, 1
   4              		.eabi_attribute 20, 1
   5              		.eabi_attribute 21, 1
   6              		.eabi_attribute 23, 3
   7              		.eabi_attribute 24, 1
   8              		.eabi_attribute 25, 1
   9              		.eabi_attribute 26, 1
  10              		.eabi_attribute 30, 1
  11              		.eabi_attribute 34, 1
  12              		.eabi_attribute 18, 4
  13              		.file	"main.c"
  14              		.text
  15              	.Ltext0:
  16              		.cfi_sections	.debug_frame
  17              		.section	.text.MX_GPIO_Init,"ax",%progbits
  18              		.align	1
  19              		.syntax unified
  20              		.thumb
  21              		.thumb_func
  22              		.fpu fpv4-sp-d16
  24              	MX_GPIO_Init:
  25              	.LFB128:
  26              		.file 1 "Src/main.c"
   1:Src/main.c    **** /* USER CODE BEGIN Header */
   2:Src/main.c    **** /**
   3:Src/main.c    ****   ******************************************************************************
   4:Src/main.c    ****   * @file           : main.c
   5:Src/main.c    ****   * @brief          : Main program body
   6:Src/main.c    ****   ******************************************************************************
   7:Src/main.c    ****   ** This notice applies to any and all portions of this file
   8:Src/main.c    ****   * that are not between comment pairs USER CODE BEGIN and
   9:Src/main.c    ****   * USER CODE END. Other portions of this file, whether 
  10:Src/main.c    ****   * inserted by the user or by software development tools
  11:Src/main.c    ****   * are owned by their respective copyright owners.
  12:Src/main.c    ****   *
  13:Src/main.c    ****   * COPYRIGHT(c) 2019 STMicroelectronics
  14:Src/main.c    ****   *
  15:Src/main.c    ****   * Redistribution and use in source and binary forms, with or without modification,
  16:Src/main.c    ****   * are permitted provided that the following conditions are met:
  17:Src/main.c    ****   *   1. Redistributions of source code must retain the above copyright notice,
  18:Src/main.c    ****   *      this list of conditions and the following disclaimer.
  19:Src/main.c    ****   *   2. Redistributions in binary form must reproduce the above copyright notice,
  20:Src/main.c    ****   *      this list of conditions and the following disclaimer in the documentation
  21:Src/main.c    ****   *      and/or other materials provided with the distribution.
  22:Src/main.c    ****   *   3. Neither the name of STMicroelectronics nor the names of its contributors
  23:Src/main.c    ****   *      may be used to endorse or promote products derived from this software
  24:Src/main.c    ****   *      without specific prior written permission.
  25:Src/main.c    ****   *
  26:Src/main.c    ****   * THIS SOFTWARE IS PROVIDED BY THE COPYRIGHT HOLDERS AND CONTRIBUTORS "AS IS"
  27:Src/main.c    ****   * AND ANY EXPRESS OR IMPLIED WARRANTIES, INCLUDING, BUT NOT LIMITED TO, THE
  28:Src/main.c    ****   * IMPLIED WARRANTIES OF MERCHANTABILITY AND FITNESS FOR A PARTICULAR PURPOSE ARE
  29:Src/main.c    ****   * DISCLAIMED. IN NO EVENT SHALL THE COPYRIGHT HOLDER OR CONTRIBUTORS BE LIABLE
  30:Src/main.c    ****   * FOR ANY DIRECT, INDIRECT, INCIDENTAL, SPECIAL, EXEMPLARY, OR CONSEQUENTIAL
  31:Src/main.c    ****   * DAMAGES (INCLUDING, BUT NOT LIMITED TO, PROCUREMENT OF SUBSTITUTE GOODS OR
  32:Src/main.c    ****   * SERVICES; LOSS OF USE, DATA, OR PROFITS; OR BUSINESS INTERRUPTION) HOWEVER
ARM GAS  C:\Users\bhimebau\AppData\Local\Temp\ccRaUkM6.s 			page 2


  33:Src/main.c    ****   * CAUSED AND ON ANY THEORY OF LIABILITY, WHETHER IN CONTRACT, STRICT LIABILITY,
  34:Src/main.c    ****   * OR TORT (INCLUDING NEGLIGENCE OR OTHERWISE) ARISING IN ANY WAY OUT OF THE USE
  35:Src/main.c    ****   * OF THIS SOFTWARE, EVEN IF ADVISED OF THE POSSIBILITY OF SUCH DAMAGE.
  36:Src/main.c    ****   *
  37:Src/main.c    ****   ******************************************************************************
  38:Src/main.c    ****   */
  39:Src/main.c    **** /* USER CODE END Header */
  40:Src/main.c    **** 
  41:Src/main.c    **** /* Includes ------------------------------------------------------------------*/
  42:Src/main.c    **** #include "main.h"
  43:Src/main.c    **** 
  44:Src/main.c    **** /* Private includes ----------------------------------------------------------*/
  45:Src/main.c    **** /* USER CODE BEGIN Includes */
  46:Src/main.c    **** 
  47:Src/main.c    **** /* USER CODE END Includes */
  48:Src/main.c    **** 
  49:Src/main.c    **** /* Private typedef -----------------------------------------------------------*/
  50:Src/main.c    **** /* USER CODE BEGIN PTD */
  51:Src/main.c    **** 
  52:Src/main.c    **** /* USER CODE END PTD */
  53:Src/main.c    **** 
  54:Src/main.c    **** /* Private define ------------------------------------------------------------*/
  55:Src/main.c    **** /* USER CODE BEGIN PD */
  56:Src/main.c    **** 
  57:Src/main.c    **** /* USER CODE END PD */
  58:Src/main.c    **** 
  59:Src/main.c    **** /* Private macro -------------------------------------------------------------*/
  60:Src/main.c    **** /* USER CODE BEGIN PM */
  61:Src/main.c    **** 
  62:Src/main.c    **** /* USER CODE END PM */
  63:Src/main.c    **** 
  64:Src/main.c    **** /* Private variables ---------------------------------------------------------*/
  65:Src/main.c    **** SMBUS_HandleTypeDef hsmbus1;
  66:Src/main.c    **** I2C_HandleTypeDef hi2c3;
  67:Src/main.c    **** 
  68:Src/main.c    **** UART_HandleTypeDef hlpuart1;
  69:Src/main.c    **** 
  70:Src/main.c    **** /* USER CODE BEGIN PV */
  71:Src/main.c    **** 
  72:Src/main.c    **** /* USER CODE END PV */
  73:Src/main.c    **** 
  74:Src/main.c    **** /* Private function prototypes -----------------------------------------------*/
  75:Src/main.c    **** void SystemClock_Config(void);
  76:Src/main.c    **** static void MX_GPIO_Init(void);
  77:Src/main.c    **** static void MX_I2C1_SMBUS_Init(void);
  78:Src/main.c    **** static void MX_LPUART1_UART_Init(void);
  79:Src/main.c    **** static void MX_I2C3_Init(void);
  80:Src/main.c    **** /* USER CODE BEGIN PFP */
  81:Src/main.c    **** 
  82:Src/main.c    **** /* USER CODE END PFP */
  83:Src/main.c    **** 
  84:Src/main.c    **** /* Private user code ---------------------------------------------------------*/
  85:Src/main.c    **** /* USER CODE BEGIN 0 */
  86:Src/main.c    **** 
  87:Src/main.c    **** /* USER CODE END 0 */
  88:Src/main.c    **** 
  89:Src/main.c    **** /**
ARM GAS  C:\Users\bhimebau\AppData\Local\Temp\ccRaUkM6.s 			page 3


  90:Src/main.c    ****   * @brief  The application entry point.
  91:Src/main.c    ****   * @retval int
  92:Src/main.c    ****   */
  93:Src/main.c    **** int main(void)
  94:Src/main.c    **** {
  95:Src/main.c    ****   /* USER CODE BEGIN 1 */
  96:Src/main.c    **** 
  97:Src/main.c    ****   /* USER CODE END 1 */
  98:Src/main.c    **** 
  99:Src/main.c    ****   /* MCU Configuration--------------------------------------------------------*/
 100:Src/main.c    **** 
 101:Src/main.c    ****   /* Reset of all peripherals, Initializes the Flash interface and the Systick. */
 102:Src/main.c    ****   HAL_Init();
 103:Src/main.c    **** 
 104:Src/main.c    ****   /* USER CODE BEGIN Init */
 105:Src/main.c    **** 
 106:Src/main.c    ****   /* USER CODE END Init */
 107:Src/main.c    **** 
 108:Src/main.c    ****   /* Configure the system clock */
 109:Src/main.c    ****   SystemClock_Config();
 110:Src/main.c    **** 
 111:Src/main.c    ****   /* USER CODE BEGIN SysInit */
 112:Src/main.c    **** 
 113:Src/main.c    ****   /* USER CODE END SysInit */
 114:Src/main.c    **** 
 115:Src/main.c    ****   /* Initialize all configured peripherals */
 116:Src/main.c    ****   MX_GPIO_Init();
 117:Src/main.c    ****   MX_I2C1_SMBUS_Init();
 118:Src/main.c    ****   MX_LPUART1_UART_Init();
 119:Src/main.c    ****   MX_I2C3_Init();
 120:Src/main.c    ****   /* USER CODE BEGIN 2 */
 121:Src/main.c    **** 
 122:Src/main.c    ****   /* USER CODE END 2 */
 123:Src/main.c    **** 
 124:Src/main.c    ****   /* Infinite loop */
 125:Src/main.c    ****   /* USER CODE BEGIN WHILE */
 126:Src/main.c    ****   while (1)
 127:Src/main.c    ****   {
 128:Src/main.c    ****     /* USER CODE END WHILE */
 129:Src/main.c    **** 
 130:Src/main.c    ****     /* USER CODE BEGIN 3 */
 131:Src/main.c    ****   }
 132:Src/main.c    ****   /* USER CODE END 3 */
 133:Src/main.c    **** }
 134:Src/main.c    **** 
 135:Src/main.c    **** /**
 136:Src/main.c    ****   * @brief System Clock Configuration
 137:Src/main.c    ****   * @retval None
 138:Src/main.c    ****   */
 139:Src/main.c    **** void SystemClock_Config(void)
 140:Src/main.c    **** {
 141:Src/main.c    ****   RCC_OscInitTypeDef RCC_OscInitStruct = {0};
 142:Src/main.c    ****   RCC_ClkInitTypeDef RCC_ClkInitStruct = {0};
 143:Src/main.c    ****   RCC_PeriphCLKInitTypeDef PeriphClkInit = {0};
 144:Src/main.c    **** 
 145:Src/main.c    ****   /**Initializes the CPU, AHB and APB busses clocks 
 146:Src/main.c    ****   */
ARM GAS  C:\Users\bhimebau\AppData\Local\Temp\ccRaUkM6.s 			page 4


 147:Src/main.c    ****   RCC_OscInitStruct.OscillatorType = RCC_OSCILLATORTYPE_MSI;
 148:Src/main.c    ****   RCC_OscInitStruct.MSIState = RCC_MSI_ON;
 149:Src/main.c    ****   RCC_OscInitStruct.MSICalibrationValue = 0;
 150:Src/main.c    ****   RCC_OscInitStruct.MSIClockRange = RCC_MSIRANGE_6;
 151:Src/main.c    ****   RCC_OscInitStruct.PLL.PLLState = RCC_PLL_NONE;
 152:Src/main.c    ****   if (HAL_RCC_OscConfig(&RCC_OscInitStruct) != HAL_OK)
 153:Src/main.c    ****   {
 154:Src/main.c    ****     Error_Handler();
 155:Src/main.c    ****   }
 156:Src/main.c    ****   /**Initializes the CPU, AHB and APB busses clocks 
 157:Src/main.c    ****   */
 158:Src/main.c    ****   RCC_ClkInitStruct.ClockType = RCC_CLOCKTYPE_HCLK|RCC_CLOCKTYPE_SYSCLK
 159:Src/main.c    ****                               |RCC_CLOCKTYPE_PCLK1|RCC_CLOCKTYPE_PCLK2;
 160:Src/main.c    ****   RCC_ClkInitStruct.SYSCLKSource = RCC_SYSCLKSOURCE_MSI;
 161:Src/main.c    ****   RCC_ClkInitStruct.AHBCLKDivider = RCC_SYSCLK_DIV1;
 162:Src/main.c    ****   RCC_ClkInitStruct.APB1CLKDivider = RCC_HCLK_DIV1;
 163:Src/main.c    ****   RCC_ClkInitStruct.APB2CLKDivider = RCC_HCLK_DIV1;
 164:Src/main.c    **** 
 165:Src/main.c    ****   if (HAL_RCC_ClockConfig(&RCC_ClkInitStruct, FLASH_LATENCY_0) != HAL_OK)
 166:Src/main.c    ****   {
 167:Src/main.c    ****     Error_Handler();
 168:Src/main.c    ****   }
 169:Src/main.c    ****   PeriphClkInit.PeriphClockSelection = RCC_PERIPHCLK_LPUART1|RCC_PERIPHCLK_I2C1
 170:Src/main.c    ****                               |RCC_PERIPHCLK_I2C3;
 171:Src/main.c    ****   PeriphClkInit.Lpuart1ClockSelection = RCC_LPUART1CLKSOURCE_PCLK1;
 172:Src/main.c    ****   PeriphClkInit.I2c1ClockSelection = RCC_I2C1CLKSOURCE_PCLK1;
 173:Src/main.c    ****   PeriphClkInit.I2c3ClockSelection = RCC_I2C3CLKSOURCE_PCLK1;
 174:Src/main.c    ****   if (HAL_RCCEx_PeriphCLKConfig(&PeriphClkInit) != HAL_OK)
 175:Src/main.c    ****   {
 176:Src/main.c    ****     Error_Handler();
 177:Src/main.c    ****   }
 178:Src/main.c    ****   /**Configure the main internal regulator output voltage 
 179:Src/main.c    ****   */
 180:Src/main.c    ****   if (HAL_PWREx_ControlVoltageScaling(PWR_REGULATOR_VOLTAGE_SCALE1) != HAL_OK)
 181:Src/main.c    ****   {
 182:Src/main.c    ****     Error_Handler();
 183:Src/main.c    ****   }
 184:Src/main.c    **** }
 185:Src/main.c    **** 
 186:Src/main.c    **** /**
 187:Src/main.c    ****   * @brief I2C1 Initialization Function
 188:Src/main.c    ****   * @param None
 189:Src/main.c    ****   * @retval None
 190:Src/main.c    ****   */
 191:Src/main.c    **** static void MX_I2C1_SMBUS_Init(void)
 192:Src/main.c    **** {
 193:Src/main.c    **** 
 194:Src/main.c    ****   /* USER CODE BEGIN I2C1_Init 0 */
 195:Src/main.c    **** 
 196:Src/main.c    ****   /* USER CODE END I2C1_Init 0 */
 197:Src/main.c    **** 
 198:Src/main.c    ****   /* USER CODE BEGIN I2C1_Init 1 */
 199:Src/main.c    **** 
 200:Src/main.c    ****   /* USER CODE END I2C1_Init 1 */
 201:Src/main.c    ****   hsmbus1.Instance = I2C1;
 202:Src/main.c    ****   hsmbus1.Init.Timing = 0x00000E14;
 203:Src/main.c    ****   hsmbus1.Init.AnalogFilter = SMBUS_ANALOGFILTER_ENABLE;
ARM GAS  C:\Users\bhimebau\AppData\Local\Temp\ccRaUkM6.s 			page 5


 204:Src/main.c    ****   hsmbus1.Init.OwnAddress1 = 2;
 205:Src/main.c    ****   hsmbus1.Init.AddressingMode = SMBUS_ADDRESSINGMODE_7BIT;
 206:Src/main.c    ****   hsmbus1.Init.DualAddressMode = SMBUS_DUALADDRESS_DISABLE;
 207:Src/main.c    ****   hsmbus1.Init.OwnAddress2 = 0;
 208:Src/main.c    ****   hsmbus1.Init.OwnAddress2Masks = SMBUS_OA2_NOMASK;
 209:Src/main.c    ****   hsmbus1.Init.GeneralCallMode = SMBUS_GENERALCALL_DISABLE;
 210:Src/main.c    ****   hsmbus1.Init.NoStretchMode = SMBUS_NOSTRETCH_DISABLE;
 211:Src/main.c    ****   hsmbus1.Init.PacketErrorCheckMode = SMBUS_PEC_DISABLE;
 212:Src/main.c    ****   hsmbus1.Init.PeripheralMode = SMBUS_PERIPHERAL_MODE_SMBUS_SLAVE;
 213:Src/main.c    ****   hsmbus1.Init.SMBusTimeout = 0x00008030;
 214:Src/main.c    ****   if (HAL_SMBUS_Init(&hsmbus1) != HAL_OK)
 215:Src/main.c    ****   {
 216:Src/main.c    ****     Error_Handler();
 217:Src/main.c    ****   }
 218:Src/main.c    ****   /* USER CODE BEGIN I2C1_Init 2 */
 219:Src/main.c    **** 
 220:Src/main.c    ****   /* USER CODE END I2C1_Init 2 */
 221:Src/main.c    **** 
 222:Src/main.c    **** }
 223:Src/main.c    **** 
 224:Src/main.c    **** /**
 225:Src/main.c    ****   * @brief I2C3 Initialization Function
 226:Src/main.c    ****   * @param None
 227:Src/main.c    ****   * @retval None
 228:Src/main.c    ****   */
 229:Src/main.c    **** static void MX_I2C3_Init(void)
 230:Src/main.c    **** {
 231:Src/main.c    **** 
 232:Src/main.c    ****   /* USER CODE BEGIN I2C3_Init 0 */
 233:Src/main.c    **** 
 234:Src/main.c    ****   /* USER CODE END I2C3_Init 0 */
 235:Src/main.c    **** 
 236:Src/main.c    ****   /* USER CODE BEGIN I2C3_Init 1 */
 237:Src/main.c    **** 
 238:Src/main.c    ****   /* USER CODE END I2C3_Init 1 */
 239:Src/main.c    ****   hi2c3.Instance = I2C3;
 240:Src/main.c    ****   hi2c3.Init.Timing = 0x00000E14;
 241:Src/main.c    ****   hi2c3.Init.OwnAddress1 = 0;
 242:Src/main.c    ****   hi2c3.Init.AddressingMode = I2C_ADDRESSINGMODE_7BIT;
 243:Src/main.c    ****   hi2c3.Init.DualAddressMode = I2C_DUALADDRESS_DISABLE;
 244:Src/main.c    ****   hi2c3.Init.OwnAddress2 = 0;
 245:Src/main.c    ****   hi2c3.Init.OwnAddress2Masks = I2C_OA2_NOMASK;
 246:Src/main.c    ****   hi2c3.Init.GeneralCallMode = I2C_GENERALCALL_DISABLE;
 247:Src/main.c    ****   hi2c3.Init.NoStretchMode = I2C_NOSTRETCH_DISABLE;
 248:Src/main.c    ****   if (HAL_I2C_Init(&hi2c3) != HAL_OK)
 249:Src/main.c    ****   {
 250:Src/main.c    ****     Error_Handler();
 251:Src/main.c    ****   }
 252:Src/main.c    ****   /**Configure Analogue filter 
 253:Src/main.c    ****   */
 254:Src/main.c    ****   if (HAL_I2CEx_ConfigAnalogFilter(&hi2c3, I2C_ANALOGFILTER_ENABLE) != HAL_OK)
 255:Src/main.c    ****   {
 256:Src/main.c    ****     Error_Handler();
 257:Src/main.c    ****   }
 258:Src/main.c    ****   /**Configure Digital filter 
 259:Src/main.c    ****   */
 260:Src/main.c    ****   if (HAL_I2CEx_ConfigDigitalFilter(&hi2c3, 0) != HAL_OK)
ARM GAS  C:\Users\bhimebau\AppData\Local\Temp\ccRaUkM6.s 			page 6


 261:Src/main.c    ****   {
 262:Src/main.c    ****     Error_Handler();
 263:Src/main.c    ****   }
 264:Src/main.c    ****   /* USER CODE BEGIN I2C3_Init 2 */
 265:Src/main.c    **** 
 266:Src/main.c    ****   /* USER CODE END I2C3_Init 2 */
 267:Src/main.c    **** 
 268:Src/main.c    **** }
 269:Src/main.c    **** 
 270:Src/main.c    **** /**
 271:Src/main.c    ****   * @brief LPUART1 Initialization Function
 272:Src/main.c    ****   * @param None
 273:Src/main.c    ****   * @retval None
 274:Src/main.c    ****   */
 275:Src/main.c    **** static void MX_LPUART1_UART_Init(void)
 276:Src/main.c    **** {
 277:Src/main.c    **** 
 278:Src/main.c    ****   /* USER CODE BEGIN LPUART1_Init 0 */
 279:Src/main.c    **** 
 280:Src/main.c    ****   /* USER CODE END LPUART1_Init 0 */
 281:Src/main.c    **** 
 282:Src/main.c    ****   /* USER CODE BEGIN LPUART1_Init 1 */
 283:Src/main.c    **** 
 284:Src/main.c    ****   /* USER CODE END LPUART1_Init 1 */
 285:Src/main.c    ****   hlpuart1.Instance = LPUART1;
 286:Src/main.c    ****   hlpuart1.Init.BaudRate = 209700;
 287:Src/main.c    ****   hlpuart1.Init.WordLength = UART_WORDLENGTH_7B;
 288:Src/main.c    ****   hlpuart1.Init.StopBits = UART_STOPBITS_1;
 289:Src/main.c    ****   hlpuart1.Init.Parity = UART_PARITY_NONE;
 290:Src/main.c    ****   hlpuart1.Init.Mode = UART_MODE_TX_RX;
 291:Src/main.c    ****   hlpuart1.Init.HwFlowCtl = UART_HWCONTROL_NONE;
 292:Src/main.c    ****   hlpuart1.Init.OneBitSampling = UART_ONE_BIT_SAMPLE_DISABLE;
 293:Src/main.c    ****   hlpuart1.AdvancedInit.AdvFeatureInit = UART_ADVFEATURE_NO_INIT;
 294:Src/main.c    ****   if (HAL_UART_Init(&hlpuart1) != HAL_OK)
 295:Src/main.c    ****   {
 296:Src/main.c    ****     Error_Handler();
 297:Src/main.c    ****   }
 298:Src/main.c    ****   /* USER CODE BEGIN LPUART1_Init 2 */
 299:Src/main.c    **** 
 300:Src/main.c    ****   /* USER CODE END LPUART1_Init 2 */
 301:Src/main.c    **** 
 302:Src/main.c    **** }
 303:Src/main.c    **** 
 304:Src/main.c    **** /**
 305:Src/main.c    ****   * @brief GPIO Initialization Function
 306:Src/main.c    ****   * @param None
 307:Src/main.c    ****   * @retval None
 308:Src/main.c    ****   */
 309:Src/main.c    **** static void MX_GPIO_Init(void)
 310:Src/main.c    **** {
  27              		.loc 1 310 0
  28              		.cfi_startproc
  29              		@ args = 0, pretend = 0, frame = 32
  30              		@ frame_needed = 0, uses_anonymous_args = 0
  31 0000 70B5     		push	{r4, r5, r6, lr}
  32              	.LCFI0:
  33              		.cfi_def_cfa_offset 16
ARM GAS  C:\Users\bhimebau\AppData\Local\Temp\ccRaUkM6.s 			page 7


  34              		.cfi_offset 4, -16
  35              		.cfi_offset 5, -12
  36              		.cfi_offset 6, -8
  37              		.cfi_offset 14, -4
  38 0002 88B0     		sub	sp, sp, #32
  39              	.LCFI1:
  40              		.cfi_def_cfa_offset 48
 311:Src/main.c    ****   GPIO_InitTypeDef GPIO_InitStruct = {0};
  41              		.loc 1 311 0
  42 0004 0024     		movs	r4, #0
  43 0006 0394     		str	r4, [sp, #12]
  44 0008 0494     		str	r4, [sp, #16]
  45 000a 0594     		str	r4, [sp, #20]
  46 000c 0694     		str	r4, [sp, #24]
  47 000e 0794     		str	r4, [sp, #28]
  48              	.LBB2:
 312:Src/main.c    **** 
 313:Src/main.c    ****   /* GPIO Ports Clock Enable */
 314:Src/main.c    ****   __HAL_RCC_GPIOA_CLK_ENABLE();
  49              		.loc 1 314 0
  50 0010 1A4B     		ldr	r3, .L3
  51 0012 DA6C     		ldr	r2, [r3, #76]
  52 0014 42F00102 		orr	r2, r2, #1
  53 0018 DA64     		str	r2, [r3, #76]
  54 001a DA6C     		ldr	r2, [r3, #76]
  55 001c 02F00102 		and	r2, r2, #1
  56 0020 0192     		str	r2, [sp, #4]
  57 0022 019A     		ldr	r2, [sp, #4]
  58              	.LBE2:
  59              	.LBB3:
 315:Src/main.c    ****   __HAL_RCC_GPIOB_CLK_ENABLE();
  60              		.loc 1 315 0
  61 0024 DA6C     		ldr	r2, [r3, #76]
  62 0026 42F00202 		orr	r2, r2, #2
  63 002a DA64     		str	r2, [r3, #76]
  64 002c DB6C     		ldr	r3, [r3, #76]
  65 002e 03F00203 		and	r3, r3, #2
  66 0032 0293     		str	r3, [sp, #8]
  67 0034 029B     		ldr	r3, [sp, #8]
  68              	.LBE3:
 316:Src/main.c    **** 
 317:Src/main.c    ****   /*Configure GPIO pin Output Level */
 318:Src/main.c    ****   HAL_GPIO_WritePin(led_out_GPIO_Port, led_out_Pin, GPIO_PIN_RESET);
  69              		.loc 1 318 0
  70 0036 124E     		ldr	r6, .L3+4
  71 0038 2246     		mov	r2, r4
  72 003a 0121     		movs	r1, #1
  73 003c 3046     		mov	r0, r6
  74 003e FFF7FEFF 		bl	HAL_GPIO_WritePin
  75              	.LVL0:
 319:Src/main.c    **** 
 320:Src/main.c    ****   /*Configure GPIO pin Output Level */
 321:Src/main.c    ****   HAL_GPIO_WritePin(sensor_power_GPIO_Port, sensor_power_Pin, GPIO_PIN_RESET);
  76              		.loc 1 321 0
  77 0042 2246     		mov	r2, r4
  78 0044 4FF48071 		mov	r1, #256
  79 0048 4FF09040 		mov	r0, #1207959552
ARM GAS  C:\Users\bhimebau\AppData\Local\Temp\ccRaUkM6.s 			page 8


  80 004c FFF7FEFF 		bl	HAL_GPIO_WritePin
  81              	.LVL1:
 322:Src/main.c    **** 
 323:Src/main.c    ****   /*Configure GPIO pin : led_out_Pin */
 324:Src/main.c    ****   GPIO_InitStruct.Pin = led_out_Pin;
  82              		.loc 1 324 0
  83 0050 0125     		movs	r5, #1
  84 0052 0395     		str	r5, [sp, #12]
 325:Src/main.c    ****   GPIO_InitStruct.Mode = GPIO_MODE_OUTPUT_PP;
  85              		.loc 1 325 0
  86 0054 0495     		str	r5, [sp, #16]
 326:Src/main.c    ****   GPIO_InitStruct.Pull = GPIO_NOPULL;
  87              		.loc 1 326 0
  88 0056 0594     		str	r4, [sp, #20]
 327:Src/main.c    ****   GPIO_InitStruct.Speed = GPIO_SPEED_FREQ_LOW;
  89              		.loc 1 327 0
  90 0058 0694     		str	r4, [sp, #24]
 328:Src/main.c    ****   HAL_GPIO_Init(led_out_GPIO_Port, &GPIO_InitStruct);
  91              		.loc 1 328 0
  92 005a 03A9     		add	r1, sp, #12
  93 005c 3046     		mov	r0, r6
  94 005e FFF7FEFF 		bl	HAL_GPIO_Init
  95              	.LVL2:
 329:Src/main.c    **** 
 330:Src/main.c    ****   /*Configure GPIO pin : sensor_power_Pin */
 331:Src/main.c    ****   GPIO_InitStruct.Pin = sensor_power_Pin;
  96              		.loc 1 331 0
  97 0062 4FF48073 		mov	r3, #256
  98 0066 0393     		str	r3, [sp, #12]
 332:Src/main.c    ****   GPIO_InitStruct.Mode = GPIO_MODE_OUTPUT_PP;
  99              		.loc 1 332 0
 100 0068 0495     		str	r5, [sp, #16]
 333:Src/main.c    ****   GPIO_InitStruct.Pull = GPIO_NOPULL;
 101              		.loc 1 333 0
 102 006a 0594     		str	r4, [sp, #20]
 334:Src/main.c    ****   GPIO_InitStruct.Speed = GPIO_SPEED_FREQ_LOW;
 103              		.loc 1 334 0
 104 006c 0694     		str	r4, [sp, #24]
 335:Src/main.c    ****   HAL_GPIO_Init(sensor_power_GPIO_Port, &GPIO_InitStruct);
 105              		.loc 1 335 0
 106 006e 03A9     		add	r1, sp, #12
 107 0070 4FF09040 		mov	r0, #1207959552
 108 0074 FFF7FEFF 		bl	HAL_GPIO_Init
 109              	.LVL3:
 336:Src/main.c    **** 
 337:Src/main.c    **** }
 110              		.loc 1 337 0
 111 0078 08B0     		add	sp, sp, #32
 112              	.LCFI2:
 113              		.cfi_def_cfa_offset 16
 114              		@ sp needed
 115 007a 70BD     		pop	{r4, r5, r6, pc}
 116              	.L4:
 117              		.align	2
 118              	.L3:
 119 007c 00100240 		.word	1073876992
 120 0080 00040048 		.word	1207960576
ARM GAS  C:\Users\bhimebau\AppData\Local\Temp\ccRaUkM6.s 			page 9


 121              		.cfi_endproc
 122              	.LFE128:
 124              		.section	.text.MX_I2C1_SMBUS_Init,"ax",%progbits
 125              		.align	1
 126              		.syntax unified
 127              		.thumb
 128              		.thumb_func
 129              		.fpu fpv4-sp-d16
 131              	MX_I2C1_SMBUS_Init:
 132              	.LFB125:
 192:Src/main.c    **** 
 133              		.loc 1 192 0
 134              		.cfi_startproc
 135              		@ args = 0, pretend = 0, frame = 0
 136              		@ frame_needed = 0, uses_anonymous_args = 0
 137 0000 08B5     		push	{r3, lr}
 138              	.LCFI3:
 139              		.cfi_def_cfa_offset 8
 140              		.cfi_offset 3, -8
 141              		.cfi_offset 14, -4
 201:Src/main.c    ****   hsmbus1.Init.Timing = 0x00000E14;
 142              		.loc 1 201 0
 143 0002 0C48     		ldr	r0, .L7
 144 0004 0C4B     		ldr	r3, .L7+4
 145 0006 0360     		str	r3, [r0]
 202:Src/main.c    ****   hsmbus1.Init.AnalogFilter = SMBUS_ANALOGFILTER_ENABLE;
 146              		.loc 1 202 0
 147 0008 40F61463 		movw	r3, #3604
 148 000c 4360     		str	r3, [r0, #4]
 203:Src/main.c    ****   hsmbus1.Init.OwnAddress1 = 2;
 149              		.loc 1 203 0
 150 000e 0023     		movs	r3, #0
 151 0010 8360     		str	r3, [r0, #8]
 204:Src/main.c    ****   hsmbus1.Init.AddressingMode = SMBUS_ADDRESSINGMODE_7BIT;
 152              		.loc 1 204 0
 153 0012 0222     		movs	r2, #2
 154 0014 C260     		str	r2, [r0, #12]
 205:Src/main.c    ****   hsmbus1.Init.DualAddressMode = SMBUS_DUALADDRESS_DISABLE;
 155              		.loc 1 205 0
 156 0016 0122     		movs	r2, #1
 157 0018 0261     		str	r2, [r0, #16]
 206:Src/main.c    ****   hsmbus1.Init.OwnAddress2 = 0;
 158              		.loc 1 206 0
 159 001a 4361     		str	r3, [r0, #20]
 207:Src/main.c    ****   hsmbus1.Init.OwnAddress2Masks = SMBUS_OA2_NOMASK;
 160              		.loc 1 207 0
 161 001c 8361     		str	r3, [r0, #24]
 208:Src/main.c    ****   hsmbus1.Init.GeneralCallMode = SMBUS_GENERALCALL_DISABLE;
 162              		.loc 1 208 0
 163 001e C361     		str	r3, [r0, #28]
 209:Src/main.c    ****   hsmbus1.Init.NoStretchMode = SMBUS_NOSTRETCH_DISABLE;
 164              		.loc 1 209 0
 165 0020 0362     		str	r3, [r0, #32]
 210:Src/main.c    ****   hsmbus1.Init.PacketErrorCheckMode = SMBUS_PEC_DISABLE;
 166              		.loc 1 210 0
 167 0022 4362     		str	r3, [r0, #36]
 211:Src/main.c    ****   hsmbus1.Init.PeripheralMode = SMBUS_PERIPHERAL_MODE_SMBUS_SLAVE;
ARM GAS  C:\Users\bhimebau\AppData\Local\Temp\ccRaUkM6.s 			page 10


 168              		.loc 1 211 0
 169 0024 8362     		str	r3, [r0, #40]
 212:Src/main.c    ****   hsmbus1.Init.SMBusTimeout = 0x00008030;
 170              		.loc 1 212 0
 171 0026 C362     		str	r3, [r0, #44]
 213:Src/main.c    ****   if (HAL_SMBUS_Init(&hsmbus1) != HAL_OK)
 172              		.loc 1 213 0
 173 0028 48F23003 		movw	r3, #32816
 174 002c 0363     		str	r3, [r0, #48]
 214:Src/main.c    ****   {
 175              		.loc 1 214 0
 176 002e FFF7FEFF 		bl	HAL_SMBUS_Init
 177              	.LVL4:
 222:Src/main.c    **** 
 178              		.loc 1 222 0
 179 0032 08BD     		pop	{r3, pc}
 180              	.L8:
 181              		.align	2
 182              	.L7:
 183 0034 00000000 		.word	hsmbus1
 184 0038 00540040 		.word	1073763328
 185              		.cfi_endproc
 186              	.LFE125:
 188              		.section	.text.MX_LPUART1_UART_Init,"ax",%progbits
 189              		.align	1
 190              		.syntax unified
 191              		.thumb
 192              		.thumb_func
 193              		.fpu fpv4-sp-d16
 195              	MX_LPUART1_UART_Init:
 196              	.LFB127:
 276:Src/main.c    **** 
 197              		.loc 1 276 0
 198              		.cfi_startproc
 199              		@ args = 0, pretend = 0, frame = 0
 200              		@ frame_needed = 0, uses_anonymous_args = 0
 201 0000 08B5     		push	{r3, lr}
 202              	.LCFI4:
 203              		.cfi_def_cfa_offset 8
 204              		.cfi_offset 3, -8
 205              		.cfi_offset 14, -4
 285:Src/main.c    ****   hlpuart1.Init.BaudRate = 209700;
 206              		.loc 1 285 0
 207 0002 0948     		ldr	r0, .L11
 208 0004 094B     		ldr	r3, .L11+4
 209 0006 0360     		str	r3, [r0]
 286:Src/main.c    ****   hlpuart1.Init.WordLength = UART_WORDLENGTH_7B;
 210              		.loc 1 286 0
 211 0008 094B     		ldr	r3, .L11+8
 212 000a 4360     		str	r3, [r0, #4]
 287:Src/main.c    ****   hlpuart1.Init.StopBits = UART_STOPBITS_1;
 213              		.loc 1 287 0
 214 000c 4FF08053 		mov	r3, #268435456
 215 0010 8360     		str	r3, [r0, #8]
 288:Src/main.c    ****   hlpuart1.Init.Parity = UART_PARITY_NONE;
 216              		.loc 1 288 0
 217 0012 0023     		movs	r3, #0
ARM GAS  C:\Users\bhimebau\AppData\Local\Temp\ccRaUkM6.s 			page 11


 218 0014 C360     		str	r3, [r0, #12]
 289:Src/main.c    ****   hlpuart1.Init.Mode = UART_MODE_TX_RX;
 219              		.loc 1 289 0
 220 0016 0361     		str	r3, [r0, #16]
 290:Src/main.c    ****   hlpuart1.Init.HwFlowCtl = UART_HWCONTROL_NONE;
 221              		.loc 1 290 0
 222 0018 0C22     		movs	r2, #12
 223 001a 4261     		str	r2, [r0, #20]
 291:Src/main.c    ****   hlpuart1.Init.OneBitSampling = UART_ONE_BIT_SAMPLE_DISABLE;
 224              		.loc 1 291 0
 225 001c 8361     		str	r3, [r0, #24]
 292:Src/main.c    ****   hlpuart1.AdvancedInit.AdvFeatureInit = UART_ADVFEATURE_NO_INIT;
 226              		.loc 1 292 0
 227 001e 0362     		str	r3, [r0, #32]
 293:Src/main.c    ****   if (HAL_UART_Init(&hlpuart1) != HAL_OK)
 228              		.loc 1 293 0
 229 0020 4362     		str	r3, [r0, #36]
 294:Src/main.c    ****   {
 230              		.loc 1 294 0
 231 0022 FFF7FEFF 		bl	HAL_UART_Init
 232              	.LVL5:
 302:Src/main.c    **** 
 233              		.loc 1 302 0
 234 0026 08BD     		pop	{r3, pc}
 235              	.L12:
 236              		.align	2
 237              	.L11:
 238 0028 00000000 		.word	hlpuart1
 239 002c 00800040 		.word	1073774592
 240 0030 24330300 		.word	209700
 241              		.cfi_endproc
 242              	.LFE127:
 244              		.section	.text.MX_I2C3_Init,"ax",%progbits
 245              		.align	1
 246              		.syntax unified
 247              		.thumb
 248              		.thumb_func
 249              		.fpu fpv4-sp-d16
 251              	MX_I2C3_Init:
 252              	.LFB126:
 230:Src/main.c    **** 
 253              		.loc 1 230 0
 254              		.cfi_startproc
 255              		@ args = 0, pretend = 0, frame = 0
 256              		@ frame_needed = 0, uses_anonymous_args = 0
 257 0000 38B5     		push	{r3, r4, r5, lr}
 258              	.LCFI5:
 259              		.cfi_def_cfa_offset 16
 260              		.cfi_offset 3, -16
 261              		.cfi_offset 4, -12
 262              		.cfi_offset 5, -8
 263              		.cfi_offset 14, -4
 239:Src/main.c    ****   hi2c3.Init.Timing = 0x00000E14;
 264              		.loc 1 239 0
 265 0002 0D4C     		ldr	r4, .L15
 266 0004 0D4B     		ldr	r3, .L15+4
 267 0006 2360     		str	r3, [r4]
ARM GAS  C:\Users\bhimebau\AppData\Local\Temp\ccRaUkM6.s 			page 12


 240:Src/main.c    ****   hi2c3.Init.OwnAddress1 = 0;
 268              		.loc 1 240 0
 269 0008 40F61463 		movw	r3, #3604
 270 000c 6360     		str	r3, [r4, #4]
 241:Src/main.c    ****   hi2c3.Init.AddressingMode = I2C_ADDRESSINGMODE_7BIT;
 271              		.loc 1 241 0
 272 000e 0025     		movs	r5, #0
 273 0010 A560     		str	r5, [r4, #8]
 242:Src/main.c    ****   hi2c3.Init.DualAddressMode = I2C_DUALADDRESS_DISABLE;
 274              		.loc 1 242 0
 275 0012 0123     		movs	r3, #1
 276 0014 E360     		str	r3, [r4, #12]
 243:Src/main.c    ****   hi2c3.Init.OwnAddress2 = 0;
 277              		.loc 1 243 0
 278 0016 2561     		str	r5, [r4, #16]
 244:Src/main.c    ****   hi2c3.Init.OwnAddress2Masks = I2C_OA2_NOMASK;
 279              		.loc 1 244 0
 280 0018 6561     		str	r5, [r4, #20]
 245:Src/main.c    ****   hi2c3.Init.GeneralCallMode = I2C_GENERALCALL_DISABLE;
 281              		.loc 1 245 0
 282 001a A561     		str	r5, [r4, #24]
 246:Src/main.c    ****   hi2c3.Init.NoStretchMode = I2C_NOSTRETCH_DISABLE;
 283              		.loc 1 246 0
 284 001c E561     		str	r5, [r4, #28]
 247:Src/main.c    ****   if (HAL_I2C_Init(&hi2c3) != HAL_OK)
 285              		.loc 1 247 0
 286 001e 2562     		str	r5, [r4, #32]
 248:Src/main.c    ****   {
 287              		.loc 1 248 0
 288 0020 2046     		mov	r0, r4
 289 0022 FFF7FEFF 		bl	HAL_I2C_Init
 290              	.LVL6:
 254:Src/main.c    ****   {
 291              		.loc 1 254 0
 292 0026 2946     		mov	r1, r5
 293 0028 2046     		mov	r0, r4
 294 002a FFF7FEFF 		bl	HAL_I2CEx_ConfigAnalogFilter
 295              	.LVL7:
 260:Src/main.c    ****   {
 296              		.loc 1 260 0
 297 002e 2946     		mov	r1, r5
 298 0030 2046     		mov	r0, r4
 299 0032 FFF7FEFF 		bl	HAL_I2CEx_ConfigDigitalFilter
 300              	.LVL8:
 268:Src/main.c    **** 
 301              		.loc 1 268 0
 302 0036 38BD     		pop	{r3, r4, r5, pc}
 303              	.L16:
 304              		.align	2
 305              	.L15:
 306 0038 00000000 		.word	hi2c3
 307 003c 005C0040 		.word	1073765376
 308              		.cfi_endproc
 309              	.LFE126:
 311              		.section	.text.SystemClock_Config,"ax",%progbits
 312              		.align	1
 313              		.global	SystemClock_Config
ARM GAS  C:\Users\bhimebau\AppData\Local\Temp\ccRaUkM6.s 			page 13


 314              		.syntax unified
 315              		.thumb
 316              		.thumb_func
 317              		.fpu fpv4-sp-d16
 319              	SystemClock_Config:
 320              	.LFB124:
 140:Src/main.c    ****   RCC_OscInitTypeDef RCC_OscInitStruct = {0};
 321              		.loc 1 140 0
 322              		.cfi_startproc
 323              		@ args = 0, pretend = 0, frame = 176
 324              		@ frame_needed = 0, uses_anonymous_args = 0
 325 0000 10B5     		push	{r4, lr}
 326              	.LCFI6:
 327              		.cfi_def_cfa_offset 8
 328              		.cfi_offset 4, -8
 329              		.cfi_offset 14, -4
 330 0002 ACB0     		sub	sp, sp, #176
 331              	.LCFI7:
 332              		.cfi_def_cfa_offset 184
 141:Src/main.c    ****   RCC_ClkInitTypeDef RCC_ClkInitStruct = {0};
 333              		.loc 1 141 0
 334 0004 4022     		movs	r2, #64
 335 0006 0021     		movs	r1, #0
 336 0008 1CA8     		add	r0, sp, #112
 337 000a FFF7FEFF 		bl	memset
 338              	.LVL9:
 142:Src/main.c    ****   RCC_PeriphCLKInitTypeDef PeriphClkInit = {0};
 339              		.loc 1 142 0
 340 000e 0024     		movs	r4, #0
 341 0010 1694     		str	r4, [sp, #88]
 342 0012 1794     		str	r4, [sp, #92]
 343 0014 1894     		str	r4, [sp, #96]
 344 0016 1994     		str	r4, [sp, #100]
 345 0018 1A94     		str	r4, [sp, #104]
 143:Src/main.c    **** 
 346              		.loc 1 143 0
 347 001a 5422     		movs	r2, #84
 348 001c 2146     		mov	r1, r4
 349 001e 01A8     		add	r0, sp, #4
 350 0020 FFF7FEFF 		bl	memset
 351              	.LVL10:
 147:Src/main.c    ****   RCC_OscInitStruct.MSIState = RCC_MSI_ON;
 352              		.loc 1 147 0
 353 0024 1023     		movs	r3, #16
 354 0026 1B93     		str	r3, [sp, #108]
 148:Src/main.c    ****   RCC_OscInitStruct.MSICalibrationValue = 0;
 355              		.loc 1 148 0
 356 0028 0123     		movs	r3, #1
 357 002a 2193     		str	r3, [sp, #132]
 150:Src/main.c    ****   RCC_OscInitStruct.PLL.PLLState = RCC_PLL_NONE;
 358              		.loc 1 150 0
 359 002c 6023     		movs	r3, #96
 360 002e 2393     		str	r3, [sp, #140]
 152:Src/main.c    ****   {
 361              		.loc 1 152 0
 362 0030 1BA8     		add	r0, sp, #108
 363 0032 FFF7FEFF 		bl	HAL_RCC_OscConfig
ARM GAS  C:\Users\bhimebau\AppData\Local\Temp\ccRaUkM6.s 			page 14


 364              	.LVL11:
 158:Src/main.c    ****                               |RCC_CLOCKTYPE_PCLK1|RCC_CLOCKTYPE_PCLK2;
 365              		.loc 1 158 0
 366 0036 0F23     		movs	r3, #15
 367 0038 1693     		str	r3, [sp, #88]
 160:Src/main.c    ****   RCC_ClkInitStruct.AHBCLKDivider = RCC_SYSCLK_DIV1;
 368              		.loc 1 160 0
 369 003a 1794     		str	r4, [sp, #92]
 161:Src/main.c    ****   RCC_ClkInitStruct.APB1CLKDivider = RCC_HCLK_DIV1;
 370              		.loc 1 161 0
 371 003c 1894     		str	r4, [sp, #96]
 162:Src/main.c    ****   RCC_ClkInitStruct.APB2CLKDivider = RCC_HCLK_DIV1;
 372              		.loc 1 162 0
 373 003e 1994     		str	r4, [sp, #100]
 163:Src/main.c    **** 
 374              		.loc 1 163 0
 375 0040 1A94     		str	r4, [sp, #104]
 165:Src/main.c    ****   {
 376              		.loc 1 165 0
 377 0042 2146     		mov	r1, r4
 378 0044 16A8     		add	r0, sp, #88
 379 0046 FFF7FEFF 		bl	HAL_RCC_ClockConfig
 380              	.LVL12:
 169:Src/main.c    ****                               |RCC_PERIPHCLK_I2C3;
 381              		.loc 1 169 0
 382 004a 4FF4B073 		mov	r3, #352
 383 004e 0193     		str	r3, [sp, #4]
 171:Src/main.c    ****   PeriphClkInit.I2c1ClockSelection = RCC_I2C1CLKSOURCE_PCLK1;
 384              		.loc 1 171 0
 385 0050 0B94     		str	r4, [sp, #44]
 172:Src/main.c    ****   PeriphClkInit.I2c3ClockSelection = RCC_I2C3CLKSOURCE_PCLK1;
 386              		.loc 1 172 0
 387 0052 0C94     		str	r4, [sp, #48]
 173:Src/main.c    ****   if (HAL_RCCEx_PeriphCLKConfig(&PeriphClkInit) != HAL_OK)
 388              		.loc 1 173 0
 389 0054 0D94     		str	r4, [sp, #52]
 174:Src/main.c    ****   {
 390              		.loc 1 174 0
 391 0056 01A8     		add	r0, sp, #4
 392 0058 FFF7FEFF 		bl	HAL_RCCEx_PeriphCLKConfig
 393              	.LVL13:
 180:Src/main.c    ****   {
 394              		.loc 1 180 0
 395 005c 4FF40070 		mov	r0, #512
 396 0060 FFF7FEFF 		bl	HAL_PWREx_ControlVoltageScaling
 397              	.LVL14:
 184:Src/main.c    **** 
 398              		.loc 1 184 0
 399 0064 2CB0     		add	sp, sp, #176
 400              	.LCFI8:
 401              		.cfi_def_cfa_offset 8
 402              		@ sp needed
 403 0066 10BD     		pop	{r4, pc}
 404              		.cfi_endproc
 405              	.LFE124:
 407              		.section	.text.main,"ax",%progbits
 408              		.align	1
ARM GAS  C:\Users\bhimebau\AppData\Local\Temp\ccRaUkM6.s 			page 15


 409              		.global	main
 410              		.syntax unified
 411              		.thumb
 412              		.thumb_func
 413              		.fpu fpv4-sp-d16
 415              	main:
 416              	.LFB123:
  94:Src/main.c    ****   /* USER CODE BEGIN 1 */
 417              		.loc 1 94 0
 418              		.cfi_startproc
 419              		@ Volatile: function does not return.
 420              		@ args = 0, pretend = 0, frame = 0
 421              		@ frame_needed = 0, uses_anonymous_args = 0
 422 0000 08B5     		push	{r3, lr}
 423              	.LCFI9:
 424              		.cfi_def_cfa_offset 8
 425              		.cfi_offset 3, -8
 426              		.cfi_offset 14, -4
 102:Src/main.c    **** 
 427              		.loc 1 102 0
 428 0002 FFF7FEFF 		bl	HAL_Init
 429              	.LVL15:
 109:Src/main.c    **** 
 430              		.loc 1 109 0
 431 0006 FFF7FEFF 		bl	SystemClock_Config
 432              	.LVL16:
 116:Src/main.c    ****   MX_I2C1_SMBUS_Init();
 433              		.loc 1 116 0
 434 000a FFF7FEFF 		bl	MX_GPIO_Init
 435              	.LVL17:
 117:Src/main.c    ****   MX_LPUART1_UART_Init();
 436              		.loc 1 117 0
 437 000e FFF7FEFF 		bl	MX_I2C1_SMBUS_Init
 438              	.LVL18:
 118:Src/main.c    ****   MX_I2C3_Init();
 439              		.loc 1 118 0
 440 0012 FFF7FEFF 		bl	MX_LPUART1_UART_Init
 441              	.LVL19:
 119:Src/main.c    ****   /* USER CODE BEGIN 2 */
 442              		.loc 1 119 0
 443 0016 FFF7FEFF 		bl	MX_I2C3_Init
 444              	.LVL20:
 445              	.L20:
 446 001a FEE7     		b	.L20
 447              		.cfi_endproc
 448              	.LFE123:
 450              		.section	.text.Error_Handler,"ax",%progbits
 451              		.align	1
 452              		.global	Error_Handler
 453              		.syntax unified
 454              		.thumb
 455              		.thumb_func
 456              		.fpu fpv4-sp-d16
 458              	Error_Handler:
 459              	.LFB129:
 338:Src/main.c    **** 
 339:Src/main.c    **** /* USER CODE BEGIN 4 */
ARM GAS  C:\Users\bhimebau\AppData\Local\Temp\ccRaUkM6.s 			page 16


 340:Src/main.c    **** 
 341:Src/main.c    **** /* USER CODE END 4 */
 342:Src/main.c    **** 
 343:Src/main.c    **** /**
 344:Src/main.c    ****   * @brief  This function is executed in case of error occurrence.
 345:Src/main.c    ****   * @retval None
 346:Src/main.c    ****   */
 347:Src/main.c    **** void Error_Handler(void)
 348:Src/main.c    **** {
 460              		.loc 1 348 0
 461              		.cfi_startproc
 462              		@ args = 0, pretend = 0, frame = 0
 463              		@ frame_needed = 0, uses_anonymous_args = 0
 464              		@ link register save eliminated.
 349:Src/main.c    ****   /* USER CODE BEGIN Error_Handler_Debug */
 350:Src/main.c    ****   /* User can add his own implementation to report the HAL error return state */
 351:Src/main.c    **** 
 352:Src/main.c    ****   /* USER CODE END Error_Handler_Debug */
 353:Src/main.c    **** }
 465              		.loc 1 353 0
 466 0000 7047     		bx	lr
 467              		.cfi_endproc
 468              	.LFE129:
 470              		.comm	hlpuart1,120,4
 471              		.comm	hi2c3,76,4
 472              		.comm	hsmbus1,80,4
 473              		.text
 474              	.Letext0:
 475              		.file 2 "c:\\program files (x86)\\gnu tools arm embedded\\7 2018-q2-update\\arm-none-eabi\\include
 476              		.file 3 "c:\\program files (x86)\\gnu tools arm embedded\\7 2018-q2-update\\arm-none-eabi\\include
 477              		.file 4 "Drivers/CMSIS/Include/core_cm4.h"
 478              		.file 5 "Drivers/CMSIS/Device/ST/STM32L4xx/Include/system_stm32l4xx.h"
 479              		.file 6 "Drivers/CMSIS/Device/ST/STM32L4xx/Include/stm32l432xx.h"
 480              		.file 7 "Drivers/STM32L4xx_HAL_Driver/Inc/stm32l4xx_hal_def.h"
 481              		.file 8 "Drivers/STM32L4xx_HAL_Driver/Inc/stm32l4xx_hal_rcc.h"
 482              		.file 9 "Drivers/STM32L4xx_HAL_Driver/Inc/stm32l4xx_hal_rcc_ex.h"
 483              		.file 10 "Drivers/STM32L4xx_HAL_Driver/Inc/stm32l4xx_hal_gpio.h"
 484              		.file 11 "Drivers/STM32L4xx_HAL_Driver/Inc/stm32l4xx_hal_dma.h"
 485              		.file 12 "Drivers/STM32L4xx_HAL_Driver/Inc/stm32l4xx_hal_i2c.h"
 486              		.file 13 "Drivers/STM32L4xx_HAL_Driver/Inc/stm32l4xx_hal_smbus.h"
 487              		.file 14 "Drivers/STM32L4xx_HAL_Driver/Inc/stm32l4xx_hal_uart.h"
 488              		.file 15 "Drivers/STM32L4xx_HAL_Driver/Inc/stm32l4xx_hal.h"
 489              		.file 16 "Drivers/STM32L4xx_HAL_Driver/Inc/stm32l4xx_hal_i2c_ex.h"
 490              		.file 17 "Drivers/STM32L4xx_HAL_Driver/Inc/stm32l4xx_hal_pwr_ex.h"
 491              		.file 18 "<built-in>"
ARM GAS  C:\Users\bhimebau\AppData\Local\Temp\ccRaUkM6.s 			page 17

